; Function Attrs: mustprogress uwtable
define noundef zeroext i1 @_ZN7testing8internal20ExitedUnsuccessfullyEi(i32 noundef %0) local_unnamed_addr #4 {
  %2 = alloca %"class.testing::ExitedWithCode", align 4
  call void @llvm.lifetime.start.p0(i64 4, ptr nonnull %2) #56
  call void @_ZN7testing14ExitedWithCodeC1Ei(ptr noundef nonnull align 4 dereferenceable(4) %2, i32 noundef 0)
  %3 = and i32 %0, 127
  %4 = icmp ne i32 %3, 0
  %5 = lshr i32 %0, 8
  %6 = and i32 %5, 255
  %7 = load i32, ptr %2, align 4
  %8 = icmp ne i32 %6, %7
  %.not2 = select i1 %4, i1 true, i1 %8
  call void @llvm.lifetime.end.p0(i64 4, ptr nonnull %2) #56
  ret i1 %.not2
}